target datalayout = "e-m:e-p270:32:32-p271:32:32-p272:64:64-i64:64-i128:128-f80:128-n8:16:32:64-S128"
target triple = "x86_64-unknown-linux-gnu"

%"class.std::basic_string_view" = type { i64, ptr }
%"class.google::protobuf::Type" = type { %"class.google::protobuf::Message", %union.anon.0 }
%"class.google::protobuf::Message" = type { %"class.google::protobuf::MessageLite" }
%"class.google::protobuf::MessageLite" = type { ptr, %"class.google::protobuf::internal::InternalMetadata" }
%"class.google::protobuf::internal::InternalMetadata" = type { i64 }
%union.anon.0 = type { %"struct.google::protobuf::Type::Impl_" }
%"struct.google::protobuf::Type::Impl_" = type <{ %"class.google::protobuf::internal::HasBits", %"class.google::protobuf::internal::CachedSize", %"class.google::protobuf::RepeatedPtrField", %"class.google::protobuf::RepeatedPtrField.1", %"class.google::protobuf::RepeatedPtrField.2", %"struct.google::protobuf::internal::ArenaStringPtr", %"struct.google::protobuf::internal::ArenaStringPtr", ptr, i32, [4 x i8] }>
%"class.google::protobuf::internal::HasBits" = type { [1 x i32] }
%"class.google::protobuf::internal::CachedSize" = type { i32 }
%"class.google::protobuf::RepeatedPtrField" = type { %"class.google::protobuf::internal::RepeatedPtrFieldBase" }
%"class.google::protobuf::internal::RepeatedPtrFieldBase" = type { ptr, i32, i32, ptr }
%"class.google::protobuf::RepeatedPtrField.1" = type { %"class.google::protobuf::internal::RepeatedPtrFieldBase" }
%"class.google::protobuf::RepeatedPtrField.2" = type { %"class.google::protobuf::internal::RepeatedPtrFieldBase" }
%"struct.google::protobuf::internal::ArenaStringPtr" = type { %"class.google::protobuf::internal::TaggedStringPtr" }
%"class.google::protobuf::internal::TaggedStringPtr" = type { ptr }

; Function Attrs: mustprogress uwtable
define linkonce_odr hidden void @_ZN6google8protobuf4TypeC2Ev(ptr noundef nonnull align 8 dereferenceable(128) %this) unnamed_addr #4 comdat align 2 {
entry:
  %this.addr = alloca ptr, align 8
  store ptr %this, ptr %this.addr, align 8
  %this1 = load ptr, ptr %this.addr, align 8
  call void @_ZN6google8protobuf4TypeC2EPNS0_5ArenaE(ptr noundef nonnull align 8 dereferenceable(128) %this1, ptr noundef null)
  ret void
}

; Function Attrs: mustprogress uwtable
define void @_ZN6google8protobuf4util23ConvertDescriptorToTypeESt17basic_string_viewIcSt11char_traitsIcEERKNS0_10DescriptorE(ptr noalias sret(%"class.google::protobuf::Type") align 8 %agg.result, i64 %url_prefix.coerce0, ptr %url_prefix.coerce1, ptr noundef nonnull align 8 dereferenceable(152) %descriptor) #4 personality ptr @__gxx_personality_v0 {
entry:
  %result.ptr = alloca ptr, align 8
  %url_prefix = alloca %"class.std::basic_string_view", align 8
  %descriptor.addr = alloca ptr, align 8
  %nrvo = alloca i1, align 1
  %agg.tmp = alloca %"class.std::basic_string_view", align 8
  %exn.slot = alloca ptr, align 8
  %ehselector.slot = alloca i32, align 4
  store ptr %agg.result, ptr %result.ptr, align 8
  %0 = getelementptr inbounds { i64, ptr }, ptr %url_prefix, i32 0, i32 0
  store i64 %url_prefix.coerce0, ptr %0, align 8
  %1 = getelementptr inbounds { i64, ptr }, ptr %url_prefix, i32 0, i32 1
  store ptr %url_prefix.coerce1, ptr %1, align 8
  store ptr %descriptor, ptr %descriptor.addr, align 8
  store i1 false, ptr %nrvo, align 1
  call void @_ZN6google8protobuf4TypeC2Ev(ptr noundef nonnull align 8 dereferenceable(128) %agg.result)
  call void @llvm.memcpy.p0.p0.i64(ptr align 8 %agg.tmp, ptr align 8 %url_prefix, i64 16, i1 false)
  %2 = load ptr, ptr %descriptor.addr, align 8
  %3 = getelementptr inbounds { i64, ptr }, ptr %agg.tmp, i32 0, i32 0
  %4 = load i64, ptr %3, align 8
  %5 = getelementptr inbounds { i64, ptr }, ptr %agg.tmp, i32 0, i32 1
  %6 = load ptr, ptr %5, align 8
  invoke void @_ZN6google8protobuf4util12_GLOBAL__N_117ConvertDescriptorESt17basic_string_viewIcSt11char_traitsIcEERKNS0_10DescriptorEPNS0_4TypeE(i64 %4, ptr %6, ptr noundef nonnull align 8 dereferenceable(152) %2, ptr noundef %agg.result)
          to label %invoke.cont unwind label %lpad

invoke.cont:                                      ; preds = %entry
  store i1 true, ptr %nrvo, align 1
  %nrvo.val = load i1, ptr %nrvo, align 1
  br i1 %nrvo.val, label %nrvo.skipdtor, label %nrvo.unused

lpad:                                             ; preds = %entry
  %7 = landingpad { ptr, i32 }
          cleanup
  %8 = extractvalue { ptr, i32 } %7, 0
  store ptr %8, ptr %exn.slot, align 8
  %9 = extractvalue { ptr, i32 } %7, 1
  store i32 %9, ptr %ehselector.slot, align 4
  call void @_ZN6google8protobuf4TypeD1Ev(ptr noundef nonnull align 8 dereferenceable(128) %agg.result) #3
  br label %eh.resume

nrvo.unused:                                      ; preds = %invoke.cont
  call void @_ZN6google8protobuf4TypeD1Ev(ptr noundef nonnull align 8 dereferenceable(128) %agg.result) #3
  br label %nrvo.skipdtor

nrvo.skipdtor:                                    ; preds = %nrvo.unused, %invoke.cont
  ret void

eh.resume:                                        ; preds = %lpad
  %exn = load ptr, ptr %exn.slot, align 8
  %sel = load i32, ptr %ehselector.slot, align 4
  %lpad.val = insertvalue { ptr, i32 } poison, ptr %exn, 0
  %lpad.val1 = insertvalue { ptr, i32 } %lpad.val, i32 %sel, 1
  resume { ptr, i32 } %lpad.val1
}