; Function Attrs: mustprogress uwtable
define void @_ZN6google8protobuf4util23ConvertDescriptorToTypeESt17basic_string_viewIcSt11char_traitsIcEERKNS0_10DescriptorE(ptr noalias nonnull sret(%"class.google::protobuf::Type") align 8 %agg.result, i64 %url_prefix.coerce0, ptr %url_prefix.coerce1, ptr nocapture noundef nonnull readonly align 8 dereferenceable(152) %descriptor) local_unnamed_addr #3 personality ptr @__gxx_personality_v0 {
entry:
  tail call void @_ZN6google8protobuf4TypeC2EPNS0_5ArenaE(ptr noundef nonnull align 8 dereferenceable(128) %agg.result, ptr noundef null)
  invoke fastcc void @_ZN6google8protobuf4util12_GLOBAL__N_117ConvertDescriptorESt17basic_string_viewIcSt11char_traitsIcEERKNS0_10DescriptorEPNS0_4TypeE(i64 %url_prefix.coerce0, ptr %url_prefix.coerce1, ptr noundef nonnull align 8 dereferenceable(152) %descriptor, ptr noundef nonnull %agg.result)
          to label %nrvo.skipdtor unwind label %lpad

lpad:                                             ; preds = %entry
  %0 = landingpad { ptr, i32 }
          cleanup
  tail call void @_ZN6google8protobuf4TypeD1Ev(ptr noundef nonnull align 8 dereferenceable(128) %agg.result) #13
  resume { ptr, i32 } %0

nrvo.skipdtor:                                    ; preds = %entry
  ret void
}